; Function Attrs: mustprogress uwtable
define noundef range(i64 0, -9223372036854775808) i64 @_ZN3fmt3v1111getpagesizeEv() local_unnamed_addr #6 personality ptr @__gxx_personality_v0 {
  %1 = alloca %"struct.fmt::v11::detail::format_arg_store.41", align 16
  %2 = tail call i64 @sysconf(i32 noundef 30) #17
  %3 = icmp slt i64 %2, 0
  br i1 %3, label %4, label %11

4:                                                ; preds = %0
  %5 = tail call ptr @__cxa_allocate_exception(i64 32) #17
  %6 = tail call ptr @__errno_location() #16
  %7 = load i32, ptr %6, align 4, !tbaa !9
  call void @llvm.lifetime.start.p0(i64 16, ptr nonnull %1) #17, !noalias !66
  invoke void @_ZN3fmt3v1113vsystem_errorEiNS0_17basic_string_viewIcEENS0_17basic_format_argsINS0_7contextEEE(ptr dead_on_unwind writable sret(%"class.std::system_error") align 8 %5, i32 noundef %7, ptr nonnull @.str.11, i64 27, i64 0, ptr nonnull %1)
          to label %8 unwind label %9

8:                                                ; preds = %4
  call void @llvm.lifetime.end.p0(i64 16, ptr nonnull %1) #17, !noalias !66
  call void @__cxa_throw(ptr %5, ptr nonnull @_ZTISt12system_error, ptr nonnull @_ZNSt12system_errorD1Ev) #19
  unreachable

9:                                                ; preds = %4
  %10 = landingpad { ptr, i32 }
          cleanup
  call void @__cxa_free_exception(ptr %5) #17
  resume { ptr, i32 } %10

11:                                               ; preds = %0
  ret i64 %2
}